Certificate:
    Data:
        Version: 3 (0x2)
        Serial Number: 15265528312646812880 (0xd3da0d1ebffb44d0)
    Signature Algorithm: sha256WithRSAEncryption
        Issuer: C=US, ST=CA\x08alifornia, O=Wazuh Inc, CN=wazuh docker/emailAddress=docker@wazuh.com
        Validity
            Not Before: Jun  5 09:23:57 2019 GMT
            Not After : May 23 09:23:57 2069 GMT
        Subject: C=US, ST=CA\x08alifornia, O=Wazuh Inc, CN=wazuh docker/emailAddress=docker@wazuh.com
        Subject Public Key Info:
            Public Key Algorithm: rsaEncryption
                Public-Key: (2048 bit)
                Modulus:
                    00:c3:69:c9:cf:e2:0b:89:b9:0d:e9:1a:63:0a:7e:
                    a6:19:5d:68:9b:16:74:bd:37:d7:23:a4:ff:5c:b4:
                    82:3c:75:b2:ee:14:a9:c8:e5:36:af:aa:da:cb:3e:
                    49:01:af:7a:3b:bd:9d:a1:48:35:b6:d7:88:e9:35:
                    9d:0c:f5:6c:72:ff:ef:14:f9:a4:fc:af:55:8f:ab:
                    c3:35:36:3e:b7:fc:c7:bd:6f:a3:91:af:43:39:83:
                    f1:52:37:27:1d:84:57:ab:54:d1:b7:22:f1:a2:ec:
                    61:17:9d:27:87:69:b8:eb:a5:9f:95:d4:43:b2:5d:
                    53:b5:f9:e6:69:62:f2:4b:dc:56:a8:3b:b0:ce:aa:
                    82:3c:b1:7a:ba:4a:85:5b:44:bc:66:3c:8c:2a:26:
                    7b:04:5b:3b:01:b0:d8:fb:47:62:d8:14:1e:31:4c:
                    33:d7:6a:fa:b2:21:f6:00:2d:fb:25:ca:ec:71:f5:
                    61:05:22:ef:f8:39:78:82:68:fe:38:3b:26:51:80:
                    af:d8:fd:4d:33:39:e7:0c:3e:d5:7b:7e:02:db:35:
                    1e:31:dc:9b:c5:98:ae:19:f8:e8:32:07:05:5d:5f:
                    42:14:9f:7a:db:d8:00:ac:63:9c:92:75:92:a8:80:
                    61:fd:72:fa:70:bc:44:c1:2a:8d:6d:83:bf:bf:e3:
                    a0:67
                Exponent: 65537 (0x10001)
        X509v3 extensions:
            X509v3 Subject Key Identifier: 
                F8:04:D7:E0:1C:5E:04:EC:2D:68:5C:5C:79:47:53:4D:1B:06:BE:D6
            X509v3 Authority Key Identifier: 
                keyid:F8:04:D7:E0:1C:5E:04:EC:2D:68:5C:5C:79:47:53:4D:1B:06:BE:D6

            X509v3 Basic Constraints: 
                CA:TRUE
    Signature Algorithm: sha256WithRSAEncryption
         6e:d7:ce:36:ef:aa:98:10:63:30:8b:a6:33:bc:3e:72:9d:3b:
         a2:77:38:f3:b3:2c:60:72:14:31:de:07:79:a7:3a:36:b3:2e:
         4a:29:c3:9c:4a:18:ba:38:15:d8:4b:2c:5b:58:19:62:4f:60:
         24:8c:40:e2:95:9a:17:bc:25:fe:e3:d1:a2:0b:ce:ee:7e:c9:
         f4:2c:97:10:41:f3:3f:7d:da:59:5a:16:c2:b4:25:cd:88:eb:
         90:26:31:6f:ce:be:99:39:ff:a6:9f:5a:db:03:7b:da:5d:fe:
         76:54:99:a0:47:f4:cd:6c:ba:89:1a:96:07:b0:c9:d5:ab:9f:
         0b:14:e5:97:c9:b4:fc:d9:e6:96:54:9e:5f:7b:b4:e9:a1:09:
         e7:9d:51:9b:3e:50:8d:cf:8b:0e:02:b9:6d:ec:67:43:79:36:
         b0:aa:00:1f:f3:39:73:de:60:83:fd:05:ab:0c:cb:c5:54:71:
         a1:80:dd:03:71:53:2f:3d:dd:03:9f:a5:87:c3:5d:08:4e:a2:
         92:47:1b:48:8b:82:1e:c9:a4:c8:11:62:99:6f:44:6a:e2:40:
         82:b9:7e:2e:f2:bd:96:ee:7a:95:d1:a0:43:b4:0a:9d:8d:32:
         73:e3:f7:20:fb:8a:ae:8b:35:27:72:0f:03:66:21:c8:e7:77:
         1d:bf:d0:9c
-----BEGIN CERTIFICATE-----
MIIDtTCCAp2gAwIBAgIJANPaDR6/+0TQMA0GCSqGSIb3DQEBCwUAMHAxCzAJBgNV
BAYTAlVTMRUwEwYDVQQIDAxDQQhhbGlmb3JuaWExEjAQBgNVBAoMCVdhenVoIElu
YzEVMBMGA1UEAwwMd2F6dWggZG9ja2VyMR8wHQYJKoZIhvcNAQkBFhBkb2NrZXJA
d2F6dWguY29tMCAXDTE5MDYwNTA5MjM1N1oYDzIwNjkwNTIzMDkyMzU3WjBwMQsw
CQYDVQQGEwJVUzEVMBMGA1UECAwMQ0EIYWxpZm9ybmlhMRIwEAYDVQQKDAlXYXp1
aCBJbmMxFTATBgNVBAMMDHdhenVoIGRvY2tlcjEfMB0GCSqGSIb3DQEJARYQZG9j
a2VyQHdhenVoLmNvbTCCASIwDQYJKoZIhvcNAQEBBQADggEPADCCAQoCggEBAMNp
yc/iC4m5DekaYwp+phldaJsWdL031yOk/1y0gjx1su4UqcjlNq+q2ss+SQGveju9
naFINbbXiOk1nQz1bHL/7xT5pPyvVY+rwzU2Prf8x71vo5GvQzmD8VI3Jx2EV6tU
0bci8aLsYRedJ4dpuOuln5XUQ7JdU7X55mli8kvcVqg7sM6qgjyxerpKhVtEvGY8
jComewRbOwGw2PtHYtgUHjFMM9dq+rIh9gAt+yXK7HH1YQUi7/g5eIJo/jg7JlGA
r9j9TTM55ww+1Xt+Ats1HjHcm8WYrhn46DIHBV1fQhSfetvYAKxjnJJ1kqiAYf1y
+nC8RMEqjW2Dv7/joGcCAwEAAaNQME4wHQYDVR0OBBYEFPgE1+AcXgTsLWhcXHlH
U00bBr7WMB8GA1UdIwQYMBaAFPgE1+AcXgTsLWhcXHlHU00bBr7WMAwGA1UdEwQF
MAMBAf8wDQYJKoZIhvcNAQELBQADggEBAG7XzjbvqpgQYzCLpjO8PnKdO6J3OPOz
LGByFDHeB3mnOjazLkopw5xKGLo4FdhLLFtYGWJPYCSMQOKVmhe8Jf7j0aILzu5+
yfQslxBB8z992llaFsK0Jc2I65AmMW/Ovpk5/6afWtsDe9pd/nZUmaBH9M1suoka
lgewydWrnwsU5ZfJtPzZ5pZUnl97tOmhCeedUZs+UI3Piw4CuW3sZ0N5NrCqAB/z
OXPeYIP9BasMy8VUcaGA3QNxUy893QOfpYfDXQhOopJHG0iLgh7JpMgRYplvRGri
QIK5fi7yvZbuepXRoEO0Cp2NMnPj9yD7iq6LNSdyDwNmIcjndx2/0Jw=
-----END CERTIFICATE-----
